target datalayout = "e-m:e-p270:32:32-p271:32:32-p272:64:64-i64:64-i128:128-f80:128-n8:16:32:64-S128"
target triple = "x86_64-pc-linux-gnu"

%struct.archive_entry = type { ptr, ptr, i32, %struct.aest, i32, %struct.archive_mstring, i64, i64, %struct.archive_mstring, %struct.archive_mstring, %struct.archive_mstring, %struct.archive_mstring, %struct.archive_mstring, i8, ptr, i64, %struct.ae_digest, %struct.archive_acl, ptr, ptr, ptr, ptr, ptr, [12 x i8], i32 }
%struct.aest = type { i64, i32, i64, i32, i64, i32, i64, i32, i64, i64, i32, i64, i64, i32, i64, i64, i64, i32, i64, i64, i64 }
%struct.archive_mstring = type { %struct.archive_string, %struct.archive_string, %struct.archive_wstring, %struct.archive_string, i32 }
%struct.archive_wstring = type { ptr, i64, i64 }
%struct.archive_string = type { ptr, i64, i64 }
%struct.ae_digest = type { [16 x i8], [20 x i8], [20 x i8], [32 x i8], [48 x i8], [64 x i8] }
%struct.archive_acl = type { i32, ptr, ptr, i32, ptr, ptr, i32 }

@.str = private unnamed_addr constant [10 x i8] c"No memory\00", align 1

; Function Attrs: nounwind uwtable
define dso_local i32 @archive_entry_update_link_utf8(ptr noundef %0, ptr noundef %1) #0 {
  %3 = alloca i32, align 4
  %4 = alloca ptr, align 8
  %5 = alloca ptr, align 8
  %6 = alloca i32, align 4
  %7 = alloca i32, align 4
  store ptr %0, ptr %4, align 8, !tbaa !4
  store ptr %1, ptr %5, align 8, !tbaa !67
  call void @llvm.lifetime.start.p0(i64 4, ptr %6) #13
  %8 = load ptr, ptr %4, align 8, !tbaa !4
  %9 = getelementptr inbounds nuw %struct.archive_entry, ptr %8, i32 0, i32 0
  %10 = load ptr, ptr %9, align 8, !tbaa !30
  %11 = load ptr, ptr %4, align 8, !tbaa !4
  %12 = getelementptr inbounds nuw %struct.archive_entry, ptr %11, i32 0, i32 9
  %13 = load ptr, ptr %5, align 8, !tbaa !67
  %14 = call i32 @archive_mstring_update_utf8(ptr noundef %10, ptr noundef %12, ptr noundef %13)
  store i32 %14, ptr %6, align 4, !tbaa !32
  %15 = load ptr, ptr %4, align 8, !tbaa !4
  %16 = getelementptr inbounds nuw %struct.archive_entry, ptr %15, i32 0, i32 4
  %17 = load i32, ptr %16, align 8, !tbaa !35
  %18 = and i32 %17, 2
  %19 = icmp eq i32 %18, 0
  br i1 %19, label %20, label %25

20:                                               ; preds = %2
  %21 = load ptr, ptr %4, align 8, !tbaa !4
  %22 = getelementptr inbounds nuw %struct.archive_entry, ptr %21, i32 0, i32 4
  %23 = load i32, ptr %22, align 8, !tbaa !35
  %24 = or i32 %23, 1
  store i32 %24, ptr %22, align 8, !tbaa !35
  br label %25

25:                                               ; preds = %20, %2
  %26 = load i32, ptr %6, align 4, !tbaa !32
  %27 = icmp eq i32 %26, 0
  br i1 %27, label %28, label %29

28:                                               ; preds = %25
  store i32 1, ptr %3, align 4
  store i32 1, ptr %7, align 4
  br label %35

29:                                               ; preds = %25
  %30 = call ptr @__errno_location() #17
  %31 = load i32, ptr %30, align 4, !tbaa !32
  %32 = icmp eq i32 %31, 12
  br i1 %32, label %33, label %34

33:                                               ; preds = %29
  call void @__archive_errx(i32 noundef 1, ptr noundef @.str) #18
  unreachable

34:                                               ; preds = %29
  store i32 0, ptr %3, align 4
  store i32 1, ptr %7, align 4
  br label %35

35:                                               ; preds = %34, %28
  call void @llvm.lifetime.end.p0(i64 4, ptr %6) #13
  %36 = load i32, ptr %3, align 4
  ret i32 %36
}