; Function Attrs: nounwind uwtable
define dso_local range(i32 0, 2) i32 @archive_entry_update_link_utf8(ptr noundef %0, ptr noundef %1) local_unnamed_addr #0 {
  %3 = load ptr, ptr %0, align 8, !tbaa !25
  %4 = getelementptr inbounds nuw i8, ptr %0, i64 424
  %5 = tail call i32 @archive_mstring_update_utf8(ptr noundef %3, ptr noundef nonnull %4, ptr noundef %1) #21
  %6 = getelementptr inbounds nuw i8, ptr %0, i64 192
  %7 = load i32, ptr %6, align 8, !tbaa !31
  %8 = and i32 %7, 2
  %9 = icmp eq i32 %8, 0
  br i1 %9, label %10, label %12

10:                                               ; preds = %2
  %11 = or i32 %7, 1
  store i32 %11, ptr %6, align 8, !tbaa !31
  br label %12

12:                                               ; preds = %10, %2
  %13 = icmp eq i32 %5, 0
  br i1 %13, label %19, label %14

14:                                               ; preds = %12
  %15 = tail call ptr @__errno_location() #25
  %16 = load i32, ptr %15, align 4, !tbaa !28
  %17 = icmp eq i32 %16, 12
  br i1 %17, label %18, label %19

18:                                               ; preds = %14
  tail call void @__archive_errx(i32 noundef 1, ptr noundef nonnull @.str) #23
  unreachable

19:                                               ; preds = %14, %12
  %.0 = phi i32 [ 1, %12 ], [ 0, %14 ]
  ret i32 %.0
}